; ModuleID = '63/981.c'
source_filename = "63/981.c"
target datalayout = "e-m:e-p270:32:32-p271:32:32-p272:64:64-i64:64-f80:128-n8:16:32:64-S128"
target triple = "x86_64-pc-linux-gnu"

@.str = private unnamed_addr constant [6 x i8] c"%d %d\00", align 1
@.str.1 = private unnamed_addr constant [3 x i8] c"%d\00", align 1
@.str.2 = private unnamed_addr constant [4 x i8] c"%d \00", align 1
@.str.3 = private unnamed_addr constant [4 x i8] c"%d\0A\00", align 1

; Function Attrs: noinline nounwind uwtable
define dso_local i32 @main() #0 {
  %1 = alloca i32, align 4
  %2 = alloca [110 x [110 x i32]], align 16
  %3 = alloca [110 x [110 x i32]], align 16
  %4 = alloca [110 x [110 x i32]], align 16
  %5 = alloca i32, align 4
  %6 = alloca i32, align 4
  %7 = alloca i32, align 4
  %8 = alloca i32, align 4
  %9 = alloca i32, align 4
  %10 = alloca i32, align 4
  %11 = alloca i32, align 4
  store i32 0, i32* %1, align 4
  %12 = getelementptr inbounds [110 x [110 x i32]], [110 x [110 x i32]]* %2, i64 0, i64 0
  %13 = bitcast [110 x i32]* %12 to i8*
  call void @llvm.memset.p0i8.i64(i8* align 16 %13, i8 0, i64 48400, i1 false)
  %14 = getelementptr inbounds [110 x [110 x i32]], [110 x [110 x i32]]* %3, i64 0, i64 0
  %15 = bitcast [110 x i32]* %14 to i8*
  call void @llvm.memset.p0i8.i64(i8* align 16 %15, i8 0, i64 48400, i1 false)
  %16 = getelementptr inbounds [110 x [110 x i32]], [110 x [110 x i32]]* %4, i64 0, i64 0
  %17 = bitcast [110 x i32]* %16 to i8*
  call void @llvm.memset.p0i8.i64(i8* align 16 %17, i8 0, i64 48400, i1 false)
  %18 = call i32 (i8*, ...) @__isoc99_scanf(i8* getelementptr inbounds ([6 x i8], [6 x i8]* @.str, i64 0, i64 0), i32* %8, i32* %10)
  store i32 1, i32* %5, align 4
  br label %19

19:                                               ; preds = %40, %0
  %20 = load i32, i32* %5, align 4
  %21 = load i32, i32* %8, align 4
  %22 = icmp sle i32 %20, %21
  br i1 %22, label %23, label %43

23:                                               ; preds = %19
  store i32 1, i32* %6, align 4
  br label %24

24:                                               ; preds = %36, %23
  %25 = load i32, i32* %6, align 4
  %26 = load i32, i32* %10, align 4
  %27 = icmp sle i32 %25, %26
  br i1 %27, label %28, label %39

28:                                               ; preds = %24
  %29 = load i32, i32* %5, align 4
  %30 = sext i32 %29 to i64
  %31 = getelementptr inbounds [110 x [110 x i32]], [110 x [110 x i32]]* %2, i64 0, i64 %30
  %32 = load i32, i32* %6, align 4
  %33 = sext i32 %32 to i64
  %34 = getelementptr inbounds [110 x i32], [110 x i32]* %31, i64 0, i64 %33
  %35 = call i32 (i8*, ...) @__isoc99_scanf(i8* getelementptr inbounds ([3 x i8], [3 x i8]* @.str.1, i64 0, i64 0), i32* %34)
  br label %36

36:                                               ; preds = %28
  %37 = load i32, i32* %6, align 4
  %38 = add nsw i32 %37, 1
  store i32 %38, i32* %6, align 4
  br label %24

39:                                               ; preds = %24
  br label %40

40:                                               ; preds = %39
  %41 = load i32, i32* %5, align 4
  %42 = add nsw i32 %41, 1
  store i32 %42, i32* %5, align 4
  br label %19

43:                                               ; preds = %19
  %44 = call i32 (i8*, ...) @__isoc99_scanf(i8* getelementptr inbounds ([6 x i8], [6 x i8]* @.str, i64 0, i64 0), i32* %9, i32* %11)
  store i32 1, i32* %5, align 4
  br label %45

45:                                               ; preds = %66, %43
  %46 = load i32, i32* %5, align 4
  %47 = load i32, i32* %9, align 4
  %48 = icmp sle i32 %46, %47
  br i1 %48, label %49, label %69

49:                                               ; preds = %45
  store i32 1, i32* %6, align 4
  br label %50

50:                                               ; preds = %62, %49
  %51 = load i32, i32* %6, align 4
  %52 = load i32, i32* %11, align 4
  %53 = icmp sle i32 %51, %52
  br i1 %53, label %54, label %65

54:                                               ; preds = %50
  %55 = load i32, i32* %5, align 4
  %56 = sext i32 %55 to i64
  %57 = getelementptr inbounds [110 x [110 x i32]], [110 x [110 x i32]]* %3, i64 0, i64 %56
  %58 = load i32, i32* %6, align 4
  %59 = sext i32 %58 to i64
  %60 = getelementptr inbounds [110 x i32], [110 x i32]* %57, i64 0, i64 %59
  %61 = call i32 (i8*, ...) @__isoc99_scanf(i8* getelementptr inbounds ([3 x i8], [3 x i8]* @.str.1, i64 0, i64 0), i32* %60)
  br label %62

62:                                               ; preds = %54
  %63 = load i32, i32* %6, align 4
  %64 = add nsw i32 %63, 1
  store i32 %64, i32* %6, align 4
  br label %50

65:                                               ; preds = %50
  br label %66

66:                                               ; preds = %65
  %67 = load i32, i32* %5, align 4
  %68 = add nsw i32 %67, 1
  store i32 %68, i32* %5, align 4
  br label %45

69:                                               ; preds = %45
  store i32 1, i32* %5, align 4
  br label %70

70:                                               ; preds = %116, %69
  %71 = load i32, i32* %5, align 4
  %72 = load i32, i32* %8, align 4
  %73 = icmp sle i32 %71, %72
  br i1 %73, label %74, label %119

74:                                               ; preds = %70
  store i32 1, i32* %6, align 4
  br label %75

75:                                               ; preds = %112, %74
  %76 = load i32, i32* %6, align 4
  %77 = load i32, i32* %11, align 4
  %78 = icmp sle i32 %76, %77
  br i1 %78, label %79, label %115

79:                                               ; preds = %75
  store i32 1, i32* %7, align 4
  br label %80

80:                                               ; preds = %108, %79
  %81 = load i32, i32* %7, align 4
  %82 = load i32, i32* %10, align 4
  %83 = icmp sle i32 %81, %82
  br i1 %83, label %84, label %111

84:                                               ; preds = %80
  %85 = load i32, i32* %5, align 4
  %86 = sext i32 %85 to i64
  %87 = getelementptr inbounds [110 x [110 x i32]], [110 x [110 x i32]]* %2, i64 0, i64 %86
  %88 = load i32, i32* %7, align 4
  %89 = sext i32 %88 to i64
  %90 = getelementptr inbounds [110 x i32], [110 x i32]* %87, i64 0, i64 %89
  %91 = load i32, i32* %90, align 4
  %92 = load i32, i32* %7, align 4
  %93 = sext i32 %92 to i64
  %94 = getelementptr inbounds [110 x [110 x i32]], [110 x [110 x i32]]* %3, i64 0, i64 %93
  %95 = load i32, i32* %6, align 4
  %96 = sext i32 %95 to i64
  %97 = getelementptr inbounds [110 x i32], [110 x i32]* %94, i64 0, i64 %96
  %98 = load i32, i32* %97, align 4
  %99 = mul nsw i32 %91, %98
  %100 = load i32, i32* %5, align 4
  %101 = sext i32 %100 to i64
  %102 = getelementptr inbounds [110 x [110 x i32]], [110 x [110 x i32]]* %4, i64 0, i64 %101
  %103 = load i32, i32* %6, align 4
  %104 = sext i32 %103 to i64
  %105 = getelementptr inbounds [110 x i32], [110 x i32]* %102, i64 0, i64 %104
  %106 = load i32, i32* %105, align 4
  %107 = add nsw i32 %106, %99
  store i32 %107, i32* %105, align 4
  br label %108

108:                                              ; preds = %84
  %109 = load i32, i32* %7, align 4
  %110 = add nsw i32 %109, 1
  store i32 %110, i32* %7, align 4
  br label %80

111:                                              ; preds = %80
  br label %112

112:                                              ; preds = %111
  %113 = load i32, i32* %6, align 4
  %114 = add nsw i32 %113, 1
  store i32 %114, i32* %6, align 4
  br label %75

115:                                              ; preds = %75
  br label %116

116:                                              ; preds = %115
  %117 = load i32, i32* %5, align 4
  %118 = add nsw i32 %117, 1
  store i32 %118, i32* %5, align 4
  br label %70

119:                                              ; preds = %70
  store i32 1, i32* %5, align 4
  br label %120

120:                                              ; preds = %150, %119
  %121 = load i32, i32* %5, align 4
  %122 = load i32, i32* %8, align 4
  %123 = icmp sle i32 %121, %122
  br i1 %123, label %124, label %153

124:                                              ; preds = %120
  store i32 1, i32* %6, align 4
  br label %125

125:                                              ; preds = %138, %124
  %126 = load i32, i32* %6, align 4
  %127 = load i32, i32* %11, align 4
  %128 = icmp slt i32 %126, %127
  br i1 %128, label %129, label %141

129:                                              ; preds = %125
  %130 = load i32, i32* %5, align 4
  %131 = sext i32 %130 to i64
  %132 = getelementptr inbounds [110 x [110 x i32]], [110 x [110 x i32]]* %4, i64 0, i64 %131
  %133 = load i32, i32* %6, align 4
  %134 = sext i32 %133 to i64
  %135 = getelementptr inbounds [110 x i32], [110 x i32]* %132, i64 0, i64 %134
  %136 = load i32, i32* %135, align 4
  %137 = call i32 (i8*, ...) @printf(i8* getelementptr inbounds ([4 x i8], [4 x i8]* @.str.2, i64 0, i64 0), i32 %136)
  br label %138

138:                                              ; preds = %129
  %139 = load i32, i32* %6, align 4
  %140 = add nsw i32 %139, 1
  store i32 %140, i32* %6, align 4
  br label %125

141:                                              ; preds = %125
  %142 = load i32, i32* %5, align 4
  %143 = sext i32 %142 to i64
  %144 = getelementptr inbounds [110 x [110 x i32]], [110 x [110 x i32]]* %4, i64 0, i64 %143
  %145 = load i32, i32* %11, align 4
  %146 = sext i32 %145 to i64
  %147 = getelementptr inbounds [110 x i32], [110 x i32]* %144, i64 0, i64 %146
  %148 = load i32, i32* %147, align 4
  %149 = call i32 (i8*, ...) @printf(i8* getelementptr inbounds ([4 x i8], [4 x i8]* @.str.3, i64 0, i64 0), i32 %148)
  br label %150

150:                                              ; preds = %141
  %151 = load i32, i32* %5, align 4
  %152 = add nsw i32 %151, 1
  store i32 %152, i32* %5, align 4
  br label %120

153:                                              ; preds = %120
  ret i32 0
}

; Function Attrs: argmemonly nounwind willreturn
declare void @llvm.memset.p0i8.i64(i8* nocapture writeonly, i8, i64, i1 immarg) #1

declare dso_local i32 @__isoc99_scanf(i8*, ...) #2

declare dso_local i32 @printf(i8*, ...) #2


!llvm.module.flags = !{!0}
!llvm.ident = !{!1}

!0 = !{i32 1, !"wchar_size", i32 4}
!1 = !{!"clang version 10.0.0-4ubuntu1 "}
